target datalayout = "e-m:e-p270:32:32-p271:32:32-p272:64:64-i64:64-i128:128-f80:128-n8:16:32:64-S128"
target triple = "x86_64-unknown-linux-gnu"

; Function Attrs: mustprogress uwtable
define internal noundef double @_ZN8QuantLib12_GLOBAL__N_129modifiedBesselFunction_k_implIdNS0_21ExponentiallyWeightedEEET_dRKS3_(double noundef %nu, ptr noundef nonnull align 8 dereferenceable(8) %x) #0 {
entry:
  %nu.addr = alloca double, align 8
  %x.addr = alloca ptr, align 8
  store double %nu, ptr %nu.addr, align 8, !tbaa !3
  store ptr %x, ptr %x.addr, align 8, !tbaa !7
  %0 = load double, ptr %nu.addr, align 8, !tbaa !3
  %fneg = fneg double %0
  %1 = load ptr, ptr %x.addr, align 8, !tbaa !7
  %call = call noundef double @_ZN8QuantLib12_GLOBAL__N_129modifiedBesselFunction_i_implIdNS0_21ExponentiallyWeightedEEET_dRKS3_(double noundef %fneg, ptr noundef nonnull align 8 dereferenceable(8) %1)
  %2 = load double, ptr %nu.addr, align 8, !tbaa !3
  %3 = load ptr, ptr %x.addr, align 8, !tbaa !7
  %call1 = call noundef double @_ZN8QuantLib12_GLOBAL__N_129modifiedBesselFunction_i_implIdNS0_21ExponentiallyWeightedEEET_dRKS3_(double noundef %2, ptr noundef nonnull align 8 dereferenceable(8) %3)
  %sub = fsub double %call, %call1
  %mul = fmul double 0x3FF921FB54442D18, %sub
  %4 = load double, ptr %nu.addr, align 8, !tbaa !3
  %mul2 = fmul double 0x400921FB54442D18, %4
  %call3 = call double @sin(double noundef %mul2) #13, !tbaa !11
  %div = fdiv double %mul, %call3
  ret double %div
}

; Function Attrs: mustprogress uwtable
define noundef double @_ZN8QuantLib46modifiedBesselFunction_k_exponentiallyWeightedEdd(double noundef %nu, double noundef %x) #0 {
entry:
  %nu.addr = alloca double, align 8
  %x.addr = alloca double, align 8
  store double %nu, ptr %nu.addr, align 8, !tbaa !3
  store double %x, ptr %x.addr, align 8, !tbaa !3
  %0 = load double, ptr %nu.addr, align 8, !tbaa !3
  %call = call noundef double @_ZN8QuantLib12_GLOBAL__N_129modifiedBesselFunction_k_implIdNS0_21ExponentiallyWeightedEEET_dRKS3_(double noundef %0, ptr noundef nonnull align 8 dereferenceable(8) %x.addr)
  ret double %call
}