; Function Attrs: mustprogress uwtable
define noundef double @_ZN8QuantLib46modifiedBesselFunction_k_exponentiallyWeightedEdd(double noundef %nu, double noundef %x) local_unnamed_addr #0 {
entry:
  %x.addr = alloca double, align 8
  store double %x, ptr %x.addr, align 8, !tbaa !3
  %fneg.i = fneg double %nu
  %call.i = call fastcc noundef double @_ZN8QuantLib12_GLOBAL__N_129modifiedBesselFunction_i_implIdNS0_21ExponentiallyWeightedEEET_dRKS3_(double noundef %fneg.i, ptr noundef nonnull readonly align 8 dereferenceable(8) %x.addr)
  %call1.i = call fastcc noundef double @_ZN8QuantLib12_GLOBAL__N_129modifiedBesselFunction_i_implIdNS0_21ExponentiallyWeightedEEET_dRKS3_(double noundef %nu, ptr noundef nonnull readonly align 8 dereferenceable(8) %x.addr)
  %sub.i = fsub double %call.i, %call1.i
  %mul.i = fmul double %sub.i, 0x3FF921FB54442D18
  %mul2.i = fmul double %nu, 0x400921FB54442D18
  %call3.i = tail call double @sin(double noundef %mul2.i) #17, !tbaa !20
  %div.i = fdiv double %mul.i, %call3.i
  ret double %div.i
}